; Function Attrs: mustprogress uwtable
define dso_local void @_ZN21btMultiBodyJointMotorC2EP11btMultiBodyiiff(ptr noundef nonnull align 8 dereferenceable(120) %0, ptr noundef %1, i32 noundef %2, i32 %3, float noundef %4, float noundef %5) unnamed_addr #0 align 2 {
  %7 = getelementptr inbounds nuw i8, ptr %1, i64 192
  %8 = load ptr, ptr %7, align 8, !tbaa !4
  %9 = sext i32 %2 to i64
  %10 = getelementptr inbounds %struct.btMultibodyLink, ptr %8, i64 %9, i32 2
  %11 = load i32, ptr %10, align 4, !tbaa !13
  tail call void @_ZN21btMultiBodyConstraintC2EP11btMultiBodyS1_iiibi(ptr noundef nonnull align 8 dereferenceable(96) %0, ptr noundef nonnull %1, ptr noundef nonnull %1, i32 noundef %2, i32 noundef %11, i32 noundef 1, i1 noundef zeroext true, i32 noundef 4)
  store ptr getelementptr inbounds nuw inrange(-16, 136) (i8, ptr @_ZTV21btMultiBodyJointMotor, i64 16), ptr %0, align 8, !tbaa !26
  %12 = getelementptr inbounds nuw i8, ptr %0, i64 96
  store float %4, ptr %12, align 8, !tbaa !28
  %13 = getelementptr inbounds nuw i8, ptr %0, i64 100
  store float 0.000000e+00, ptr %13, align 4, !tbaa !35
  %14 = getelementptr inbounds nuw i8, ptr %0, i64 104
  store float 1.000000e+00, ptr %14, align 8, !tbaa !36
  %15 = getelementptr inbounds nuw i8, ptr %0, i64 108
  store float 0.000000e+00, ptr %15, align 4, !tbaa !37
  %16 = getelementptr inbounds nuw i8, ptr %0, i64 112
  store float 1.000000e+00, ptr %16, align 8, !tbaa !38
  %17 = getelementptr inbounds nuw i8, ptr %0, i64 116
  store float 0x47EFFFFFE0000000, ptr %17, align 4, !tbaa !39
  %18 = getelementptr inbounds nuw i8, ptr %0, i64 60
  store float %5, ptr %18, align 4, !tbaa !40
  ret void
}